Certificate:
    Data:
        Version: 3 (0x2)
        Serial Number: 4096 (0x1000)
    Signature Algorithm: md5WithRSAEncryption
        Issuer: C=us, ST=us, L=slc, O=us, OU=uou, CN=jowie/emailAddress=jowietan@hotmail.com
        Validity
            Not Before: Apr  8 02:10:54 2023 GMT
            Not After : Apr  7 02:10:54 2024 GMT
        Subject: C=us, ST=us, O=us, OU=uou, CN=jowie/emailAddress=jowietan@hotmail.com
        Subject Public Key Info:
            Public Key Algorithm: rsaEncryption
                Public-Key: (4096 bit)
                Modulus:
                    00:bc:5e:5d:a5:83:ee:a6:90:e5:79:34:f5:6d:37:
                    bb:0f:e3:cb:e9:a8:b8:74:c1:ed:a4:33:72:7e:ab:
                    61:91:67:1f:50:19:5f:2d:7f:d3:84:48:e9:cb:fc:
                    e7:51:46:32:22:77:dc:b4:d0:de:42:32:28:18:4d:
                    bc:95:1b:a6:5c:b0:b2:56:2e:47:95:6b:0c:68:f3:
                    fb:7d:38:e8:2d:7c:5c:aa:1a:52:44:e4:2a:a9:1a:
                    0a:8c:11:27:42:af:d5:8b:9d:b2:25:17:69:58:57:
                    ed:d9:60:7a:e5:36:fd:bb:9d:e1:85:86:36:54:21:
                    6f:9c:f9:44:eb:3f:7f:8e:e6:e6:41:f2:3e:26:3a:
                    1d:4c:1d:d3:3a:96:cc:7d:af:d5:74:14:da:cc:38:
                    b2:a4:f8:d6:ac:31:3f:3e:41:09:46:ac:b1:aa:9b:
                    48:76:98:21:77:46:cd:fd:ba:37:3c:e5:c5:dc:fd:
                    a4:9d:e8:01:7c:1b:a7:22:47:ac:b1:8f:88:5c:cd:
                    ef:88:84:f9:47:f1:c9:7d:4c:cf:57:e0:23:93:44:
                    20:84:99:03:e8:b6:f0:44:9a:ae:3c:a4:82:c3:2c:
                    e8:f1:9c:ea:71:57:31:d3:46:7e:8a:51:cc:11:91:
                    5a:e5:1a:65:16:6b:d3:93:6a:c9:25:88:23:ce:3a:
                    4a:e4:ab:13:37:ac:32:17:c9:16:8d:3f:e0:36:ae:
                    df:69:8e:a6:16:16:e3:a3:8f:95:55:06:e7:fa:94:
                    0e:2b:20:c5:07:8d:a1:2b:98:5e:53:72:a8:8c:22:
                    6d:0c:d6:f3:a4:04:e9:c0:88:97:3a:31:c3:52:04:
                    fd:f8:8b:1c:eb:7b:e3:e8:c6:4c:02:9d:81:4a:72:
                    c8:26:86:8d:6c:7a:31:d0:ca:f3:3a:e3:ba:a9:b4:
                    42:d8:6d:4d:78:31:b7:2b:7e:d2:a3:2f:e4:49:53:
                    4e:a8:ec:44:9c:03:61:3b:74:ba:38:bb:dc:8d:39:
                    bf:f9:7a:8c:ee:85:15:58:71:2a:e2:2c:2a:77:63:
                    fd:c1:42:e7:e3:fc:28:3d:0c:f1:70:d8:08:94:2b:
                    12:e8:cb:50:2a:6c:50:16:36:56:ae:65:63:fb:92:
                    6d:e7:0f:69:16:6c:d4:0b:a0:6b:e2:57:20:2f:68:
                    66:7d:c6:30:a0:53:a2:49:fc:3d:70:55:9f:a9:81:
                    d3:81:9a:77:03:af:d0:e2:54:4f:3c:97:54:6a:ba:
                    96:af:c2:cd:09:9d:4f:0c:a0:98:38:76:f6:c5:57:
                    2a:02:ad:ad:d2:bb:52:49:1c:56:f6:48:b9:4c:15:
                    97:f0:14:2f:8f:fa:e9:c3:c7:3e:52:e8:e1:fe:7e:
                    81:a7:d3
                Exponent: 65537 (0x10001)
        X509v3 extensions:
            X509v3 Basic Constraints: 
                CA:FALSE
            Netscape Comment: 
                OpenSSL Generated Certificate
            X509v3 Subject Key Identifier: 
                99:BC:A4:32:C0:45:D9:0B:4F:13:AF:14:8D:FD:38:92:FB:36:36:FC
            X509v3 Authority Key Identifier: 
                DirName:/C=us/ST=us/L=slc/O=us/OU=uou/CN=jowie/emailAddress=jowietan@hotmail.com
                serial:99:36:CF:C0:51:F6:DB:7E

    Signature Algorithm: md5WithRSAEncryption
         33:b5:df:ab:19:80:3d:8b:38:17:ee:27:f8:7b:5e:e3:28:92:
         ab:cc:e3:86:19:a6:c6:b6:46:04:c2:b2:04:24:de:8d:3c:cf:
         00:82:bd:0e:d0:f6:29:d3:41:e2:e3:d1:e4:4c:64:75:81:ef:
         f6:59:1a:4f:61:46:5b:48:b7:3e:68:a8:eb:1f:b3:24:d5:b1:
         ba:ea:7e:95:15:0a:71:a4:82:73:27:84:7f:6d:b5:1f:26:34:
         94:6a:73:d0:2e:95:4a:d8:d4:82:37:f5:6f:91:4b:9f:d9:58:
         d9:72:1c:d6:51:d1:8f:78:3e:df:03:1e:6c:4a:30:55:9c:b3:
         bb:47:9c:6d:e6:d8:b0:58:83:63:99:89:9c:e0:92:6d:60:51:
         0c:a4:61:cb:1e:6d:da:0f:11:e6:a3:b4:04:84:73:42:63:19:
         d3:73:ab:44:67:9b:b6:e5:25:ae:d2:06:9d:2c:dd:6e:e0:58:
         a1:7c:fb:6e:73:ce:86:52:55:78:47:89:fe:8a:3f:fc:a0:cf:
         12:0b:58:8d:0e:72:15:a7:36:86:05:a6:66:74:2b:39:3e:b4:
         c8:9e:44:dd:69:d1:e8:38:76:22:d4:85:f4:96:12:a4:89:45:
         41:d1:ba:4c:ee:18:db:64:7e:cd:57:e5:49:d0:53:dd:c4:b8:
         f2:23:ed:59:e5:36:d2:8d:26:80:04:65:ab:a8:c2:40:57:79:
         04:95:05:f1:97:2c:ce:ca:a4:43:66:b6:8f:ea:04:0c:bf:8f:
         47:6b:4a:72:28:94:24:0b:9d:f1:43:bd:17:9b:20:1a:fc:1f:
         28:ef:23:d0:c3:d4:74:93:0f:1b:0e:12:8b:47:57:6e:84:78:
         dc:b8:5b:44:76:f2:94:b4:67:67:7e:4c:24:d6:3d:73:ef:36:
         3c:4f:4e:69:17:c4:07:80:bd:92:ec:18:46:10:de:de:01:19:
         8d:ea:80:59:6a:fe:69:c7:48:91:2c:60:9b:95:2d:fa:bb:ef:
         90:09:0c:d5:f1:18:47:e3:2b:62:92:cf:37:ca:3e:22:57:49:
         8b:b1:c2:28:ec:8d:64:37:72:0b:6e:e6:ed:ba:08:8b:9e:7b:
         5c:cd:48:52:2b:e2:e5:09:77:a4:2f:9d:5b:c5:c7:4b:78:db:
         c0:6f:6a:af:5c:82:b4:c2:6e:28:29:bd:bb:32:74:ad:c5:2f:
         6f:6f:61:b9:5f:64:fd:71:4e:20:cc:22:a9:84:e3:d3:15:90:
         2d:67:7b:2e:7f:2c:f6:0c:36:30:92:8b:d3:4e:74:b6:58:b4:
         4d:f7:10:7f:6e:8b:84:6b:17:af:ac:3f:bd:45:0b:e2:6c:a8:
         e1:5c:31:c2:90:a4:b0:7b
-----BEGIN CERTIFICATE-----
MIIGUTCCBDmgAwIBAgICEAAwDQYJKoZIhvcNAQEEBQAweDELMAkGA1UEBhMCdXMx
CzAJBgNVBAgMAnVzMQwwCgYDVQQHDANzbGMxCzAJBgNVBAoMAnVzMQwwCgYDVQQL
DAN1b3UxDjAMBgNVBAMMBWpvd2llMSMwIQYJKoZIhvcNAQkBFhRqb3dpZXRhbkBo
b3RtYWlsLmNvbTAeFw0yMzA0MDgwMjEwNTRaFw0yNDA0MDcwMjEwNTRaMGoxCzAJ
BgNVBAYTAnVzMQswCQYDVQQIDAJ1czELMAkGA1UECgwCdXMxDDAKBgNVBAsMA3Vv
dTEOMAwGA1UEAwwFam93aWUxIzAhBgkqhkiG9w0BCQEWFGpvd2lldGFuQGhvdG1h
aWwuY29tMIICIjANBgkqhkiG9w0BAQEFAAOCAg8AMIICCgKCAgEAvF5dpYPuppDl
eTT1bTe7D+PL6ai4dMHtpDNyfqthkWcfUBlfLX/ThEjpy/znUUYyInfctNDeQjIo
GE28lRumXLCyVi5HlWsMaPP7fTjoLXxcqhpSROQqqRoKjBEnQq/Vi52yJRdpWFft
2WB65Tb9u53hhYY2VCFvnPlE6z9/jubmQfI+JjodTB3TOpbMfa/VdBTazDiypPjW
rDE/PkEJRqyxqptIdpghd0bN/bo3POXF3P2knegBfBunIkessY+IXM3viIT5R/HJ
fUzPV+Ajk0QghJkD6LbwRJquPKSCwyzo8ZzqcVcx00Z+ilHMEZFa5RplFmvTk2rJ
JYgjzjpK5KsTN6wyF8kWjT/gNq7faY6mFhbjo4+VVQbn+pQOKyDFB42hK5heU3Ko
jCJtDNbzpATpwIiXOjHDUgT9+Isc63vj6MZMAp2BSnLIJoaNbHox0MrzOuO6qbRC
2G1NeDG3K37Soy/kSVNOqOxEnANhO3S6OLvcjTm/+XqM7oUVWHEq4iwqd2P9wULn
4/woPQzxcNgIlCsS6MtQKmxQFjZWrmVj+5Jt5w9pFmzUC6Br4lcgL2hmfcYwoFOi
Sfw9cFWfqYHTgZp3A6/Q4lRPPJdUarqWr8LNCZ1PDKCYOHb2xVcqAq2t0rtSSRxW
9ki5TBWX8BQvj/rpw8c+Uujh/n6Bp9MCAwEAAaOB8jCB7zAJBgNVHRMEAjAAMCwG
CWCGSAGG+EIBDQQfFh1PcGVuU1NMIEdlbmVyYXRlZCBDZXJ0aWZpY2F0ZTAdBgNV
HQ4EFgQUmbykMsBF2QtPE68Ujf04kvs2NvwwgZQGA1UdIwSBjDCBiaF8pHoweDEL
MAkGA1UEBhMCdXMxCzAJBgNVBAgMAnVzMQwwCgYDVQQHDANzbGMxCzAJBgNVBAoM
AnVzMQwwCgYDVQQLDAN1b3UxDjAMBgNVBAMMBWpvd2llMSMwIQYJKoZIhvcNAQkB
FhRqb3dpZXRhbkBob3RtYWlsLmNvbYIJAJk2z8BR9tt+MA0GCSqGSIb3DQEBBAUA
A4ICAQAztd+rGYA9izgX7if4e17jKJKrzOOGGabGtkYEwrIEJN6NPM8Agr0O0PYp
00Hi49HkTGR1ge/2WRpPYUZbSLc+aKjrH7Mk1bG66n6VFQpxpIJzJ4R/bbUfJjSU
anPQLpVK2NSCN/VvkUuf2VjZchzWUdGPeD7fAx5sSjBVnLO7R5xt5tiwWINjmYmc
4JJtYFEMpGHLHm3aDxHmo7QEhHNCYxnTc6tEZ5u25SWu0gadLN1u4FihfPtuc86G
UlV4R4n+ij/8oM8SC1iNDnIVpzaGBaZmdCs5PrTInkTdadHoOHYi1IX0lhKkiUVB
0bpM7hjbZH7NV+VJ0FPdxLjyI+1Z5TbSjSaABGWrqMJAV3kElQXxlyzOyqRDZraP
6gQMv49Ha0pyKJQkC53xQ70XmyAa/B8o7yPQw9R0kw8bDhKLR1duhHjcuFtEdvKU
tGdnfkwk1j1z7zY8T05pF8QHgL2S7BhGEN7eARmN6oBZav5px0iRLGCblS36u++Q
CQzV8RhH4ytiks83yj4iV0mLscIo7I1kN3ILbubtugiLnntczUhSK+LlCXekL51b
xcdLeNvAb2qvXIK0wm4oKb27MnStxS9vb2G5X2T9cU4gzCKphOPTFZAtZ3sufyz2
DDYwkovTTnS2WLRN9xB/bouEaxevrD+9RQvibKjhXDHCkKSwew==
-----END CERTIFICATE-----
