Certificate:
    Data:
        Version: 3 (0x2)
        Serial Number: 4096 (0x1000)
    Signature Algorithm: md5WithRSAEncryption
        Issuer: C=us, ST=us, L=slc, O=us, OU=uou, CN=jowie/emailAddress=jowietan@hotmail.com
        Validity
            Not Before: Apr  8 02:08:39 2023 GMT
            Not After : Apr  7 02:08:39 2024 GMT
        Subject: C=us, ST=us, O=us, OU=uou, CN=jowie/emailAddress=jowietan@hotmail.com
        Subject Public Key Info:
            Public Key Algorithm: rsaEncryption
                Public-Key: (4096 bit)
                Modulus:
                    00:c5:6f:4b:52:6c:93:26:f4:c7:19:45:15:74:e6:
                    f1:86:05:0b:88:37:dd:f5:88:fe:13:5c:e6:f8:e3:
                    58:23:7f:13:00:a2:a0:08:35:42:a0:ff:50:bc:5f:
                    55:34:34:3d:d1:f0:1f:27:5e:50:63:90:79:70:4b:
                    fc:16:7e:52:84:92:1e:9c:e7:24:c4:6e:4e:09:50:
                    87:76:99:71:e9:46:d8:bf:39:3f:be:9a:5e:9a:2f:
                    ba:da:5e:a7:3d:9d:5d:72:c4:0c:a5:7e:51:5c:fc:
                    22:52:bf:70:b2:25:ed:62:9b:77:9a:08:e8:a8:da:
                    0b:3f:58:b5:7d:a8:08:92:3e:da:de:f2:db:d2:0a:
                    13:9b:6a:8b:5f:d3:7a:03:f7:38:b7:5c:23:5e:b1:
                    36:22:0f:fe:ab:33:d7:b3:70:00:ba:a2:33:8b:78:
                    b4:2a:d7:ba:aa:7a:4a:0d:7d:0d:d2:03:7f:74:91:
                    c6:09:8a:e7:c3:d7:ea:4f:b7:9c:21:00:fe:e7:00:
                    20:35:1f:d2:40:19:65:5a:ac:39:6e:0c:44:d2:34:
                    b4:33:90:df:be:f5:02:7f:f4:df:4a:ae:f7:20:ee:
                    c8:e0:01:73:d4:f2:ff:d6:8c:9c:f8:bd:0e:b3:08:
                    f4:64:24:86:84:3e:14:05:5e:96:c0:e8:2c:42:45:
                    51:96:36:72:92:17:e2:86:f6:ea:25:b9:9c:9b:97:
                    67:37:e2:ef:3a:ff:61:8e:ab:80:6e:91:ee:8f:25:
                    33:4f:c7:c8:1d:9b:c9:c4:91:78:8f:78:b3:b3:7e:
                    43:a8:c8:cf:2d:a2:a3:da:85:f7:02:a5:a7:cf:fc:
                    3e:5e:82:da:61:19:a0:e1:69:2b:f6:da:ad:23:62:
                    95:82:99:2a:19:1d:13:3a:c6:fc:b7:b2:8b:84:a8:
                    9d:9b:5d:a7:7b:3c:19:f0:ad:13:01:7d:20:6d:82:
                    90:36:c5:59:88:8c:cd:bf:12:c5:6b:89:7a:34:0d:
                    f0:cd:1c:94:7c:31:75:24:c4:0e:2c:0c:c7:10:58:
                    0f:ac:6d:a3:38:d6:cd:9c:c7:c5:72:31:16:67:d4:
                    96:92:0b:c5:cf:6e:61:b2:d8:3e:f2:66:2f:4f:b4:
                    09:a2:63:cf:74:fa:17:e2:4d:fc:3c:2b:c2:40:95:
                    cf:33:0c:b0:72:13:e1:1a:a1:23:75:6d:cd:ab:11:
                    94:37:31:61:e1:65:2b:c0:51:ae:f4:a0:82:fa:23:
                    3a:69:8b:38:d4:b7:a8:14:02:4c:a7:e9:02:14:b3:
                    86:83:45:43:46:74:ee:2c:ae:17:0e:e7:a2:e2:94:
                    80:19:c1:82:bb:da:6c:fb:ad:60:9e:72:06:5d:89:
                    cb:4f:59
                Exponent: 65537 (0x10001)
        X509v3 extensions:
            X509v3 Basic Constraints: 
                CA:FALSE
            Netscape Comment: 
                OpenSSL Generated Certificate
            X509v3 Subject Key Identifier: 
                2B:4F:5D:D7:A2:B7:B0:2F:5C:80:1A:34:61:11:6C:AB:9B:06:16:C2
            X509v3 Authority Key Identifier: 
                DirName:/C=us/ST=us/L=slc/O=us/OU=uou/CN=jowie/emailAddress=jowietan@hotmail.com
                serial:99:36:CF:C0:51:F6:DB:7E

    Signature Algorithm: md5WithRSAEncryption
         1c:4b:0d:0b:d9:81:0d:82:5f:a1:d3:48:e8:73:fb:e8:4b:7b:
         6b:f2:e1:d5:3d:4c:0a:23:f9:0f:29:db:e1:0a:cf:b4:73:29:
         91:5a:d6:38:75:04:68:95:8c:6a:53:5c:fe:22:9a:b7:23:32:
         f2:87:ff:c1:7e:e2:9d:77:89:32:8a:3b:82:d0:b3:1e:f4:52:
         75:b9:c1:21:76:3d:9d:31:46:7f:38:da:df:c5:77:ea:ec:d2:
         40:94:e2:1e:4f:df:17:01:07:5a:88:1a:da:78:39:6f:09:7c:
         7c:b8:06:0c:38:e2:1b:0f:98:5a:14:77:c9:30:e3:5e:65:a2:
         0d:e9:de:d4:1d:69:e1:e2:31:c8:a7:31:7c:af:be:fc:ac:2f:
         47:5b:5f:8f:c2:16:eb:a0:e1:30:f4:41:e1:73:42:01:f4:26:
         06:4f:51:c1:28:de:43:f0:61:e6:6b:7f:25:49:d2:be:b7:e6:
         43:2c:36:ee:cd:05:66:4f:ba:4f:1c:85:f7:08:a4:6f:53:43:
         49:17:9f:ea:98:4d:62:e2:5b:42:e7:44:e9:15:0d:61:d1:ed:
         09:19:37:85:21:b6:04:2c:a5:06:80:8e:5b:04:09:f4:f2:51:
         05:89:a6:7e:f5:57:62:65:ae:3c:42:ff:49:4c:84:83:62:15:
         76:6a:02:23:ab:05:ae:db:75:7b:44:01:30:b6:14:07:5a:c3:
         b7:28:c0:da:a8:66:a6:0b:7a:da:41:82:9b:c8:3a:6f:e1:eb:
         21:f8:d2:d4:ea:49:54:d7:64:18:3a:9d:31:1b:38:63:bc:1e:
         3a:69:94:0c:d8:18:b5:62:05:19:3c:83:a6:e0:61:34:e9:8d:
         ac:c6:a2:b1:b0:40:e0:6e:83:68:71:51:cd:29:5f:e8:ca:73:
         5a:2f:05:14:91:fa:1d:5a:5d:dd:ac:96:fd:04:fc:27:24:59:
         cf:8f:81:ff:44:e1:49:3a:82:38:a6:33:17:38:33:99:4a:6f:
         a2:c0:58:20:f0:9d:6b:4c:91:40:2c:a5:b5:42:4a:1f:c7:c9:
         fe:80:f6:7e:a7:fe:94:59:a5:1f:f5:b8:4e:69:4c:c8:56:e5:
         c1:15:bd:cb:c7:6b:27:99:e8:3d:98:2a:e6:11:af:0f:4e:2c:
         e1:ab:bf:c6:d9:67:34:45:df:84:df:ac:d9:7e:7c:22:49:56:
         ca:88:a7:7a:3d:9f:ce:84:13:0d:4c:82:52:70:9a:99:01:52:
         fd:5e:d6:85:91:ee:de:d9:24:4c:a4:26:63:5d:e5:e8:97:f0:
         59:c4:2e:f8:9d:5a:6e:b4:52:b8:ad:37:e5:0f:33:91:ec:ba:
         3a:c9:13:5a:91:56:83:c9
-----BEGIN CERTIFICATE-----
MIIGUTCCBDmgAwIBAgICEAAwDQYJKoZIhvcNAQEEBQAweDELMAkGA1UEBhMCdXMx
CzAJBgNVBAgMAnVzMQwwCgYDVQQHDANzbGMxCzAJBgNVBAoMAnVzMQwwCgYDVQQL
DAN1b3UxDjAMBgNVBAMMBWpvd2llMSMwIQYJKoZIhvcNAQkBFhRqb3dpZXRhbkBo
b3RtYWlsLmNvbTAeFw0yMzA0MDgwMjA4MzlaFw0yNDA0MDcwMjA4MzlaMGoxCzAJ
BgNVBAYTAnVzMQswCQYDVQQIDAJ1czELMAkGA1UECgwCdXMxDDAKBgNVBAsMA3Vv
dTEOMAwGA1UEAwwFam93aWUxIzAhBgkqhkiG9w0BCQEWFGpvd2lldGFuQGhvdG1h
aWwuY29tMIICIjANBgkqhkiG9w0BAQEFAAOCAg8AMIICCgKCAgEAxW9LUmyTJvTH
GUUVdObxhgULiDfd9Yj+E1zm+ONYI38TAKKgCDVCoP9QvF9VNDQ90fAfJ15QY5B5
cEv8Fn5ShJIenOckxG5OCVCHdplx6UbYvzk/vppemi+62l6nPZ1dcsQMpX5RXPwi
Ur9wsiXtYpt3mgjoqNoLP1i1fagIkj7a3vLb0goTm2qLX9N6A/c4t1wjXrE2Ig/+
qzPXs3AAuqIzi3i0Kte6qnpKDX0N0gN/dJHGCYrnw9fqT7ecIQD+5wAgNR/SQBll
Wqw5bgxE0jS0M5DfvvUCf/TfSq73IO7I4AFz1PL/1oyc+L0Oswj0ZCSGhD4UBV6W
wOgsQkVRljZykhfihvbqJbmcm5dnN+LvOv9hjquAbpHujyUzT8fIHZvJxJF4j3iz
s35DqMjPLaKj2oX3AqWnz/w+XoLaYRmg4Wkr9tqtI2KVgpkqGR0TOsb8t7KLhKid
m12nezwZ8K0TAX0gbYKQNsVZiIzNvxLFa4l6NA3wzRyUfDF1JMQOLAzHEFgPrG2j
ONbNnMfFcjEWZ9SWkgvFz25hstg+8mYvT7QJomPPdPoX4k38PCvCQJXPMwywchPh
GqEjdW3NqxGUNzFh4WUrwFGu9KCC+iM6aYs41LeoFAJMp+kCFLOGg0VDRnTuLK4X
Duei4pSAGcGCu9ps+61gnnIGXYnLT1kCAwEAAaOB8jCB7zAJBgNVHRMEAjAAMCwG
CWCGSAGG+EIBDQQfFh1PcGVuU1NMIEdlbmVyYXRlZCBDZXJ0aWZpY2F0ZTAdBgNV
HQ4EFgQUK09d16K3sC9cgBo0YRFsq5sGFsIwgZQGA1UdIwSBjDCBiaF8pHoweDEL
MAkGA1UEBhMCdXMxCzAJBgNVBAgMAnVzMQwwCgYDVQQHDANzbGMxCzAJBgNVBAoM
AnVzMQwwCgYDVQQLDAN1b3UxDjAMBgNVBAMMBWpvd2llMSMwIQYJKoZIhvcNAQkB
FhRqb3dpZXRhbkBob3RtYWlsLmNvbYIJAJk2z8BR9tt+MA0GCSqGSIb3DQEBBAUA
A4ICAQAcSw0L2YENgl+h00joc/voS3tr8uHVPUwKI/kPKdvhCs+0cymRWtY4dQRo
lYxqU1z+Ipq3IzLyh//BfuKdd4kyijuC0LMe9FJ1ucEhdj2dMUZ/ONrfxXfq7NJA
lOIeT98XAQdaiBraeDlvCXx8uAYMOOIbD5haFHfJMONeZaIN6d7UHWnh4jHIpzF8
r778rC9HW1+PwhbroOEw9EHhc0IB9CYGT1HBKN5D8GHma38lSdK+t+ZDLDbuzQVm
T7pPHIX3CKRvU0NJF5/qmE1i4ltC50TpFQ1h0e0JGTeFIbYELKUGgI5bBAn08lEF
iaZ+9VdiZa48Qv9JTISDYhV2agIjqwWu23V7RAEwthQHWsO3KMDaqGamC3raQYKb
yDpv4esh+NLU6klU12QYOp0xGzhjvB46aZQM2Bi1YgUZPIOm4GE06Y2sxqKxsEDg
boNocVHNKV/oynNaLwUUkfodWl3drJb9BPwnJFnPj4H/ROFJOoI4pjMXODOZSm+i
wFgg8J1rTJFALKW1Qkofx8n+gPZ+p/6UWaUf9bhOaUzIVuXBFb3Lx2snmeg9mCrm
Ea8PTizhq7/G2Wc0Rd+E36zZfnwiSVbKiKd6PZ/OhBMNTIJScJqZAVL9XtaFke7e
2SRMpCZjXeXol/BZxC74nVputFK4rTflDzOR7Lo6yRNakVaDyQ==
-----END CERTIFICATE-----
